; Function Attrs: nounwind uwtable
define void @Abc_FlowRetime_UpdateLags() local_unnamed_addr #0 {
  %1 = load ptr, ptr @pManMR, align 8, !tbaa !3
  %2 = getelementptr inbounds nuw i8, ptr %1, i64 48
  %3 = load ptr, ptr %2, align 8, !tbaa !8
  %4 = getelementptr inbounds nuw i8, ptr %3, i64 232
  %5 = load ptr, ptr %4, align 8, !tbaa !118
  %.not.i = icmp eq ptr %5, null
  br i1 %.not.i, label %6, label %Abc_NtkIncrementTravId.exit

6:                                                ; preds = %0
  %7 = getelementptr inbounds nuw i8, ptr %3, i64 224
  %8 = getelementptr i8, ptr %3, i64 32
  %.val.i = load ptr, ptr %8, align 8, !tbaa !56
  %9 = getelementptr i8, ptr %.val.i, i64 4
  %.val.val.i = load i32, ptr %9, align 4, !tbaa !25
  %10 = add nsw i32 %.val.val.i, 500
  %11 = load i32, ptr %7, align 8, !tbaa !66
  %.not.i.i.i = icmp slt i32 %11, %10
  br i1 %.not.i.i.i, label %12, label %Vec_IntGrow.exit.i.i

12:                                               ; preds = %6
  %13 = sext i32 %10 to i64
  %14 = shl nsw i64 %13, 2
  %15 = tail call noalias ptr @malloc(i64 noundef %14) #17
  store ptr %15, ptr %4, align 8, !tbaa !67
  store i32 %10, ptr %7, align 8, !tbaa !66
  br label %Vec_IntGrow.exit.i.i

Vec_IntGrow.exit.i.i:                             ; preds = %12, %6
  %16 = phi ptr [ %15, %12 ], [ null, %6 ]
  %17 = icmp sgt i32 %.val.val.i, -500
  br i1 %17, label %.lr.ph.i.i, label %Vec_IntFill.exit.i

.lr.ph.i.i:                                       ; preds = %Vec_IntGrow.exit.i.i
  %18 = zext nneg i32 %10 to i64
  %19 = shl nuw nsw i64 %18, 2
  tail call void @llvm.memset.p0.i64(ptr align 4 %16, i8 0, i64 %19, i1 false), !tbaa !48
  br label %Vec_IntFill.exit.i

Vec_IntFill.exit.i:                               ; preds = %.lr.ph.i.i, %Vec_IntGrow.exit.i.i
  %20 = getelementptr inbounds nuw i8, ptr %3, i64 228
  store i32 %10, ptr %20, align 4, !tbaa !68
  br label %Abc_NtkIncrementTravId.exit

Abc_NtkIncrementTravId.exit:                      ; preds = %0, %Vec_IntFill.exit.i
  %21 = getelementptr inbounds nuw i8, ptr %3, i64 216
  %22 = load i32, ptr %21, align 8, !tbaa !119
  %23 = add nsw i32 %22, 1
  store i32 %23, ptr %21, align 8, !tbaa !119
  %24 = getelementptr inbounds nuw i8, ptr %3, i64 80
  %25 = load ptr, ptr %24, align 8, !tbaa !34
  %26 = getelementptr i8, ptr %25, i64 4
  %.val36 = load i32, ptr %26, align 4, !tbaa !25
  %27 = icmp sgt i32 %.val36, 0
  br i1 %27, label %.lr.ph38, label %.critedge

.lr.ph38:                                         ; preds = %Abc_NtkIncrementTravId.exit, %.critedge2
  %indvars.iv44 = phi i64 [ %indvars.iv.next45, %.critedge2 ], [ 0, %Abc_NtkIncrementTravId.exit ]
  %28 = phi ptr [ %68, %.critedge2 ], [ %25, %Abc_NtkIncrementTravId.exit ]
  %29 = phi ptr [ %64, %.critedge2 ], [ %1, %Abc_NtkIncrementTravId.exit ]
  %30 = getelementptr i8, ptr %28, i64 8
  %.val21.val = load ptr, ptr %30, align 8, !tbaa !28
  %31 = getelementptr inbounds nuw ptr, ptr %.val21.val, i64 %indvars.iv44
  %32 = load ptr, ptr %31, align 8, !tbaa !51
  %33 = getelementptr i8, ptr %32, i64 20
  %.val22 = load i32, ptr %33, align 4
  %34 = and i32 %.val22, 15
  %.not = icmp eq i32 %34, 8
  br i1 %.not, label %35, label %.critedge2

35:                                               ; preds = %.lr.ph38
  %36 = getelementptr inbounds nuw i8, ptr %29, i64 60
  %37 = load i32, ptr %36, align 4, !tbaa !72
  %.not20 = icmp eq i32 %37, 0
  br i1 %.not20, label %.preheader, label %.preheader29

.preheader29:                                     ; preds = %35
  %38 = getelementptr i8, ptr %32, i64 28
  %.val2431 = load i32, ptr %38, align 4, !tbaa !62
  %39 = icmp sgt i32 %.val2431, 0
  br i1 %39, label %.lr.ph, label %.critedge2

.lr.ph:                                           ; preds = %.preheader29
  %40 = getelementptr i8, ptr %32, i64 32
  br label %44

.preheader:                                       ; preds = %35
  %41 = getelementptr i8, ptr %32, i64 44
  %.val2333 = load i32, ptr %41, align 4, !tbaa !58
  %42 = icmp sgt i32 %.val2333, 0
  br i1 %42, label %.lr.ph35, label %.critedge2

.lr.ph35:                                         ; preds = %.preheader
  %43 = getelementptr i8, ptr %32, i64 48
  br label %54

44:                                               ; preds = %.lr.ph, %44
  %indvars.iv = phi i64 [ 0, %.lr.ph ], [ %indvars.iv.next, %44 ]
  %.val27 = load ptr, ptr %32, align 8, !tbaa !52
  %.val28 = load ptr, ptr %40, align 8, !tbaa !55
  %45 = getelementptr i8, ptr %.val27, i64 32
  %.val27.val = load ptr, ptr %45, align 8, !tbaa !56
  %46 = getelementptr i8, ptr %.val27.val, i64 8
  %.val27.val.val = load ptr, ptr %46, align 8, !tbaa !28
  %47 = getelementptr inbounds nuw i32, ptr %.val28, i64 %indvars.iv
  %48 = load i32, ptr %47, align 4, !tbaa !48
  %49 = sext i32 %48 to i64
  %50 = getelementptr inbounds ptr, ptr %.val27.val.val, i64 %49
  %51 = load ptr, ptr %50, align 8, !tbaa !51
  tail call fastcc void @Abc_FlowRetime_UpdateLags_forw_rec(ptr noundef %51)
  %indvars.iv.next = add nuw nsw i64 %indvars.iv, 1
  %.val24 = load i32, ptr %38, align 4, !tbaa !62
  %52 = sext i32 %.val24 to i64
  %53 = icmp slt i64 %indvars.iv.next, %52
  br i1 %53, label %44, label %.critedge2, !llvm.loop !120

54:                                               ; preds = %.lr.ph35, %54
  %indvars.iv41 = phi i64 [ 0, %.lr.ph35 ], [ %indvars.iv.next42, %54 ]
  %.val25 = load ptr, ptr %32, align 8, !tbaa !52
  %.val26 = load ptr, ptr %43, align 8, !tbaa !57
  %55 = getelementptr i8, ptr %.val25, i64 32
  %.val25.val = load ptr, ptr %55, align 8, !tbaa !56
  %56 = getelementptr i8, ptr %.val25.val, i64 8
  %.val25.val.val = load ptr, ptr %56, align 8, !tbaa !28
  %57 = getelementptr inbounds nuw i32, ptr %.val26, i64 %indvars.iv41
  %58 = load i32, ptr %57, align 4, !tbaa !48
  %59 = sext i32 %58 to i64
  %60 = getelementptr inbounds ptr, ptr %.val25.val.val, i64 %59
  %61 = load ptr, ptr %60, align 8, !tbaa !51
  tail call fastcc void @Abc_FlowRetime_UpdateLags_back_rec(ptr noundef %61)
  %indvars.iv.next42 = add nuw nsw i64 %indvars.iv41, 1
  %.val23 = load i32, ptr %41, align 4, !tbaa !58
  %62 = sext i32 %.val23 to i64
  %63 = icmp slt i64 %indvars.iv.next42, %62
  br i1 %63, label %54, label %.critedge2, !llvm.loop !121

.critedge2:                                       ; preds = %44, %54, %.preheader29, %.preheader, %.lr.ph38
  %indvars.iv.next45 = add nuw nsw i64 %indvars.iv44, 1
  %64 = load ptr, ptr @pManMR, align 8, !tbaa !3
  %65 = getelementptr inbounds nuw i8, ptr %64, i64 48
  %66 = load ptr, ptr %65, align 8, !tbaa !8
  %67 = getelementptr inbounds nuw i8, ptr %66, i64 80
  %68 = load ptr, ptr %67, align 8, !tbaa !34
  %69 = getelementptr i8, ptr %68, i64 4
  %.val = load i32, ptr %69, align 4, !tbaa !25
  %70 = sext i32 %.val to i64
  %71 = icmp slt i64 %indvars.iv.next45, %70
  br i1 %71, label %.lr.ph38, label %.critedge, !llvm.loop !122

.critedge:                                        ; preds = %.critedge2, %Abc_NtkIncrementTravId.exit
  ret void
}